target datalayout = "e-m:e-p270:32:32-p271:32:32-p272:64:64-i64:64-i128:128-f80:128-n8:16:32:64-S128"
target triple = "x86_64-pc-linux-gnu"

%struct.H5E_stack_t = type { i64, [32 x %struct.H5E_entry_t], %struct.H5E_auto_op_t, ptr, i32 }
%struct.H5E_entry_t = type { i8, %struct.H5E_error2_t }
%struct.H5E_error2_t = type { i64, i64, i64, i32, ptr, ptr, ptr }
%struct.H5E_auto_op_t = type { i32, i8, ptr, ptr, ptr, ptr }

@H5E_ERR_CLS_g = global i64 -1, align 8
@H5E_ERROR_g = global i64 -1, align 8
@H5E_CANTDEC_g = global i64 -1, align 8
@H5E_first_maj_id_g = global i64 -1, align 8
@H5E_last_maj_id_g = global i64 -1, align 8
@H5E_first_min_id_g = global i64 -1, align 8
@H5E_last_min_id_g = global i64 -1, align 8
@H5E_init_g = external global i8, align 1
@H5_libterm_g = external global i8, align 1
@.str.1 = private unnamed_addr constant [100 x i8] c"generated/home/dtcxzyw/WorkSpace/Projects/compilers/llvm-opt-benchmark/bench/hdf5/hdf5/src/H5Eint.c\00", align 1
@__func__.H5E__clear_entries = private unnamed_addr constant [19 x i8] c"H5E__clear_entries\00", align 1
@.str.408 = private unnamed_addr constant [47 x i8] c"unable to decrement ref count on error message\00", align 1
@.str.409 = private unnamed_addr constant [45 x i8] c"unable to decrement ref count on error class\00", align 1

; Function Attrs: nounwind uwtable
define internal i32 @H5E__clear_entries(ptr noundef %0, i64 noundef %1) #0 {
  %3 = alloca i32, align 4
  %4 = alloca ptr, align 8
  %5 = alloca i64, align 8
  %6 = alloca i32, align 4
  %7 = alloca i32, align 4
  %8 = alloca i8, align 1
  %9 = alloca ptr, align 8
  %10 = alloca i32, align 4
  store ptr %0, ptr %4, align 8, !tbaa !16
  store i64 %1, ptr %5, align 8, !tbaa !11
  call void @llvm.lifetime.start.p0(i64 4, ptr %6) #9
  call void @llvm.lifetime.start.p0(i64 4, ptr %7) #9
  store i32 0, ptr %7, align 4, !tbaa !3
  call void @llvm.lifetime.start.p0(i64 1, ptr %8) #9
  store i8 0, ptr %8, align 1, !tbaa !7
  %11 = load i8, ptr @H5E_init_g, align 1, !tbaa !7, !range !9, !noundef !10
  %12 = trunc i8 %11 to i1
  br i1 %12, label %17, label %13

13:                                               ; preds = %2
  %14 = load i8, ptr @H5_libterm_g, align 1, !tbaa !7, !range !9, !noundef !10
  %15 = trunc i8 %14 to i1
  %16 = xor i1 %15, true
  br label %17

17:                                               ; preds = %13, %2
  %18 = phi i1 [ true, %2 ], [ %16, %13 ]
  %19 = xor i1 %18, true
  %20 = xor i1 %19, true
  %21 = zext i1 %20 to i32
  %22 = sext i32 %21 to i64
  %23 = call i64 @llvm.expect.i64(i64 %22, i64 1)
  %24 = icmp ne i64 %23, 0
  br i1 %24, label %25, label %202

25:                                               ; preds = %17
  store i32 0, ptr %6, align 4, !tbaa !3
  br label %26

26:                                               ; preds = %189, %25
  %27 = load i64, ptr %5, align 8, !tbaa !11
  %28 = icmp ugt i64 %27, 0
  br i1 %28, label %29, label %194

29:                                               ; preds = %26
  call void @llvm.lifetime.start.p0(i64 8, ptr %9) #9
  %30 = load ptr, ptr %4, align 8, !tbaa !16
  %31 = getelementptr inbounds nuw %struct.H5E_stack_t, ptr %30, i32 0, i32 1
  %32 = load ptr, ptr %4, align 8, !tbaa !16
  %33 = getelementptr inbounds nuw %struct.H5E_stack_t, ptr %32, i32 0, i32 0
  %34 = load i64, ptr %33, align 8, !tbaa !21
  %35 = load i32, ptr %6, align 4, !tbaa !3
  %36 = add i32 %35, 1
  %37 = zext i32 %36 to i64
  %38 = sub i64 %34, %37
  %39 = getelementptr inbounds nuw [32 x %struct.H5E_entry_t], ptr %31, i64 0, i64 %38
  store ptr %39, ptr %9, align 8, !tbaa !50
  %40 = load ptr, ptr %9, align 8, !tbaa !50
  %41 = getelementptr inbounds nuw %struct.H5E_entry_t, ptr %40, i32 0, i32 1
  %42 = getelementptr inbounds nuw %struct.H5E_error2_t, ptr %41, i32 0, i32 2
  %43 = load i64, ptr %42, align 8, !tbaa !58
  %44 = load i64, ptr @H5E_first_min_id_g, align 8, !tbaa !11
  %45 = icmp slt i64 %43, %44
  br i1 %45, label %53, label %46

46:                                               ; preds = %29
  %47 = load ptr, ptr %9, align 8, !tbaa !50
  %48 = getelementptr inbounds nuw %struct.H5E_entry_t, ptr %47, i32 0, i32 1
  %49 = getelementptr inbounds nuw %struct.H5E_error2_t, ptr %48, i32 0, i32 2
  %50 = load i64, ptr %49, align 8, !tbaa !58
  %51 = load i64, ptr @H5E_last_min_id_g, align 8, !tbaa !11
  %52 = icmp sgt i64 %50, %51
  br i1 %52, label %53, label %80

53:                                               ; preds = %46, %29
  %54 = load ptr, ptr %9, align 8, !tbaa !50
  %55 = getelementptr inbounds nuw %struct.H5E_entry_t, ptr %54, i32 0, i32 1
  %56 = getelementptr inbounds nuw %struct.H5E_error2_t, ptr %55, i32 0, i32 2
  %57 = load i64, ptr %56, align 8, !tbaa !58
  %58 = call i32 @H5I_dec_ref(i64 noundef %57)
  %59 = icmp slt i32 %58, 0
  br i1 %59, label %60, label %79

60:                                               ; preds = %53
  br label %61

61:                                               ; preds = %60
  br label %62

62:                                               ; preds = %61
  br label %63

63:                                               ; preds = %62
  %64 = load i64, ptr @H5E_ERROR_g, align 8, !tbaa !11
  %65 = load i64, ptr @H5E_CANTDEC_g, align 8, !tbaa !11
  %66 = call i32 (ptr, ptr, i32, i64, i64, ptr, ...) @H5E_printf_stack(ptr noundef @.str.1, ptr noundef @__func__.H5E__clear_entries, i32 noundef 1797, i64 noundef %64, i64 noundef %65, ptr noundef @.str.408)
  br label %67

67:                                               ; preds = %63
  br label %68

68:                                               ; preds = %67
  store i8 1, ptr %8, align 1, !tbaa !7
  %69 = load i8, ptr %8, align 1, !tbaa !7, !range !9, !noundef !10
  %70 = trunc i8 %69 to i1
  %71 = zext i1 %70 to i8
  store i8 %71, ptr %8, align 1, !tbaa !7
  br label %72

72:                                               ; preds = %68
  br label %73

73:                                               ; preds = %72
  br label %74

74:                                               ; preds = %73
  store i32 -1, ptr %7, align 4, !tbaa !3
  store i32 13, ptr %10, align 4
  br label %186

75:                                               ; No predecessors!
  br label %76

76:                                               ; preds = %75
  br label %77

77:                                               ; preds = %76
  br label %78

78:                                               ; preds = %77
  br label %79

79:                                               ; preds = %78, %53
  br label %80

80:                                               ; preds = %79, %46
  %81 = load ptr, ptr %9, align 8, !tbaa !50
  %82 = getelementptr inbounds nuw %struct.H5E_entry_t, ptr %81, i32 0, i32 1
  %83 = getelementptr inbounds nuw %struct.H5E_error2_t, ptr %82, i32 0, i32 1
  %84 = load i64, ptr %83, align 8, !tbaa !57
  %85 = load i64, ptr @H5E_first_maj_id_g, align 8, !tbaa !11
  %86 = icmp slt i64 %84, %85
  br i1 %86, label %94, label %87

87:                                               ; preds = %80
  %88 = load ptr, ptr %9, align 8, !tbaa !50
  %89 = getelementptr inbounds nuw %struct.H5E_entry_t, ptr %88, i32 0, i32 1
  %90 = getelementptr inbounds nuw %struct.H5E_error2_t, ptr %89, i32 0, i32 1
  %91 = load i64, ptr %90, align 8, !tbaa !57
  %92 = load i64, ptr @H5E_last_maj_id_g, align 8, !tbaa !11
  %93 = icmp sgt i64 %91, %92
  br i1 %93, label %94, label %121

94:                                               ; preds = %87, %80
  %95 = load ptr, ptr %9, align 8, !tbaa !50
  %96 = getelementptr inbounds nuw %struct.H5E_entry_t, ptr %95, i32 0, i32 1
  %97 = getelementptr inbounds nuw %struct.H5E_error2_t, ptr %96, i32 0, i32 1
  %98 = load i64, ptr %97, align 8, !tbaa !57
  %99 = call i32 @H5I_dec_ref(i64 noundef %98)
  %100 = icmp slt i32 %99, 0
  br i1 %100, label %101, label %120

101:                                              ; preds = %94
  br label %102

102:                                              ; preds = %101
  br label %103

103:                                              ; preds = %102
  br label %104

104:                                              ; preds = %103
  %105 = load i64, ptr @H5E_ERROR_g, align 8, !tbaa !11
  %106 = load i64, ptr @H5E_CANTDEC_g, align 8, !tbaa !11
  %107 = call i32 (ptr, ptr, i32, i64, i64, ptr, ...) @H5E_printf_stack(ptr noundef @.str.1, ptr noundef @__func__.H5E__clear_entries, i32 noundef 1800, i64 noundef %105, i64 noundef %106, ptr noundef @.str.408)
  br label %108

108:                                              ; preds = %104
  br label %109

109:                                              ; preds = %108
  store i8 1, ptr %8, align 1, !tbaa !7
  %110 = load i8, ptr %8, align 1, !tbaa !7, !range !9, !noundef !10
  %111 = trunc i8 %110 to i1
  %112 = zext i1 %111 to i8
  store i8 %112, ptr %8, align 1, !tbaa !7
  br label %113

113:                                              ; preds = %109
  br label %114

114:                                              ; preds = %113
  br label %115

115:                                              ; preds = %114
  store i32 -1, ptr %7, align 4, !tbaa !3
  store i32 13, ptr %10, align 4
  br label %186

116:                                              ; No predecessors!
  br label %117

117:                                              ; preds = %116
  br label %118

118:                                              ; preds = %117
  br label %119

119:                                              ; preds = %118
  br label %120

120:                                              ; preds = %119, %94
  br label %121

121:                                              ; preds = %120, %87
  %122 = load ptr, ptr %9, align 8, !tbaa !50
  %123 = getelementptr inbounds nuw %struct.H5E_entry_t, ptr %122, i32 0, i32 1
  %124 = getelementptr inbounds nuw %struct.H5E_error2_t, ptr %123, i32 0, i32 0
  %125 = load i64, ptr %124, align 8, !tbaa !56
  %126 = load i64, ptr @H5E_ERR_CLS_g, align 8, !tbaa !11
  %127 = icmp ne i64 %125, %126
  br i1 %127, label %128, label %155

128:                                              ; preds = %121
  %129 = load ptr, ptr %9, align 8, !tbaa !50
  %130 = getelementptr inbounds nuw %struct.H5E_entry_t, ptr %129, i32 0, i32 1
  %131 = getelementptr inbounds nuw %struct.H5E_error2_t, ptr %130, i32 0, i32 0
  %132 = load i64, ptr %131, align 8, !tbaa !56
  %133 = call i32 @H5I_dec_ref(i64 noundef %132)
  %134 = icmp slt i32 %133, 0
  br i1 %134, label %135, label %154

135:                                              ; preds = %128
  br label %136

136:                                              ; preds = %135
  br label %137

137:                                              ; preds = %136
  br label %138

138:                                              ; preds = %137
  %139 = load i64, ptr @H5E_ERROR_g, align 8, !tbaa !11
  %140 = load i64, ptr @H5E_CANTDEC_g, align 8, !tbaa !11
  %141 = call i32 (ptr, ptr, i32, i64, i64, ptr, ...) @H5E_printf_stack(ptr noundef @.str.1, ptr noundef @__func__.H5E__clear_entries, i32 noundef 1803, i64 noundef %139, i64 noundef %140, ptr noundef @.str.409)
  br label %142

142:                                              ; preds = %138
  br label %143

143:                                              ; preds = %142
  store i8 1, ptr %8, align 1, !tbaa !7
  %144 = load i8, ptr %8, align 1, !tbaa !7, !range !9, !noundef !10
  %145 = trunc i8 %144 to i1
  %146 = zext i1 %145 to i8
  store i8 %146, ptr %8, align 1, !tbaa !7
  br label %147

147:                                              ; preds = %143
  br label %148

148:                                              ; preds = %147
  br label %149

149:                                              ; preds = %148
  store i32 -1, ptr %7, align 4, !tbaa !3
  store i32 13, ptr %10, align 4
  br label %186

150:                                              ; No predecessors!
  br label %151

151:                                              ; preds = %150
  br label %152

152:                                              ; preds = %151
  br label %153

153:                                              ; preds = %152
  br label %154

154:                                              ; preds = %153, %128
  br label %155

155:                                              ; preds = %154, %121
  %156 = load ptr, ptr %9, align 8, !tbaa !50
  %157 = getelementptr inbounds nuw %struct.H5E_entry_t, ptr %156, i32 0, i32 0
  %158 = load i8, ptr %157, align 8, !tbaa !53, !range !9, !noundef !10
  %159 = trunc i8 %158 to i1
  br i1 %159, label %160, label %171

160:                                              ; preds = %155
  %161 = load ptr, ptr %9, align 8, !tbaa !50
  %162 = getelementptr inbounds nuw %struct.H5E_entry_t, ptr %161, i32 0, i32 1
  %163 = getelementptr inbounds nuw %struct.H5E_error2_t, ptr %162, i32 0, i32 5
  %164 = load ptr, ptr %163, align 8, !tbaa !59
  %165 = call ptr @H5MM_xfree_const(ptr noundef %164)
  %166 = load ptr, ptr %9, align 8, !tbaa !50
  %167 = getelementptr inbounds nuw %struct.H5E_entry_t, ptr %166, i32 0, i32 1
  %168 = getelementptr inbounds nuw %struct.H5E_error2_t, ptr %167, i32 0, i32 4
  %169 = load ptr, ptr %168, align 8, !tbaa !60
  %170 = call ptr @H5MM_xfree_const(ptr noundef %169)
  br label %171

171:                                              ; preds = %160, %155
  %172 = load ptr, ptr %9, align 8, !tbaa !50
  %173 = getelementptr inbounds nuw %struct.H5E_entry_t, ptr %172, i32 0, i32 1
  %174 = getelementptr inbounds nuw %struct.H5E_error2_t, ptr %173, i32 0, i32 5
  store ptr null, ptr %174, align 8, !tbaa !59
  %175 = load ptr, ptr %9, align 8, !tbaa !50
  %176 = getelementptr inbounds nuw %struct.H5E_entry_t, ptr %175, i32 0, i32 1
  %177 = getelementptr inbounds nuw %struct.H5E_error2_t, ptr %176, i32 0, i32 4
  store ptr null, ptr %177, align 8, !tbaa !60
  %178 = load ptr, ptr %9, align 8, !tbaa !50
  %179 = getelementptr inbounds nuw %struct.H5E_entry_t, ptr %178, i32 0, i32 1
  %180 = getelementptr inbounds nuw %struct.H5E_error2_t, ptr %179, i32 0, i32 6
  %181 = load ptr, ptr %180, align 8, !tbaa !61
  %182 = call ptr @H5MM_xfree_const(ptr noundef %181)
  %183 = load ptr, ptr %9, align 8, !tbaa !50
  %184 = getelementptr inbounds nuw %struct.H5E_entry_t, ptr %183, i32 0, i32 1
  %185 = getelementptr inbounds nuw %struct.H5E_error2_t, ptr %184, i32 0, i32 6
  store ptr %182, ptr %185, align 8, !tbaa !61
  store i32 0, ptr %10, align 4
  br label %186

186:                                              ; preds = %149, %115, %74, %171
  call void @llvm.lifetime.end.p0(i64 8, ptr %9) #9
  %187 = load i32, ptr %10, align 4
  switch i32 %187, label %204 [
    i32 0, label %188
    i32 13, label %201
  ]

188:                                              ; preds = %186
  br label %189

189:                                              ; preds = %188
  %190 = load i64, ptr %5, align 8, !tbaa !11
  %191 = add i64 %190, -1
  store i64 %191, ptr %5, align 8, !tbaa !11
  %192 = load i32, ptr %6, align 4, !tbaa !3
  %193 = add i32 %192, 1
  store i32 %193, ptr %6, align 4, !tbaa !3
  br label %26, !llvm.loop !101

194:                                              ; preds = %26
  %195 = load i32, ptr %6, align 4, !tbaa !3
  %196 = zext i32 %195 to i64
  %197 = load ptr, ptr %4, align 8, !tbaa !16
  %198 = getelementptr inbounds nuw %struct.H5E_stack_t, ptr %197, i32 0, i32 0
  %199 = load i64, ptr %198, align 8, !tbaa !21
  %200 = sub i64 %199, %196
  store i64 %200, ptr %198, align 8, !tbaa !21
  br label %201

201:                                              ; preds = %194, %186
  br label %202

202:                                              ; preds = %201, %17
  %203 = load i32, ptr %7, align 4, !tbaa !3
  store i32 %203, ptr %3, align 4
  store i32 1, ptr %10, align 4
  br label %204

204:                                              ; preds = %202, %186
  call void @llvm.lifetime.end.p0(i64 1, ptr %8) #9
  call void @llvm.lifetime.end.p0(i64 4, ptr %7) #9
  call void @llvm.lifetime.end.p0(i64 4, ptr %6) #9
  %205 = load i32, ptr %3, align 4
  ret i32 %205
}