; Function Attrs: nounwind uwtable
define internal fastcc range(i32 -1, 1) i32 @H5E__clear_entries(ptr noundef captures(none) %0, i64 noundef %1) unnamed_addr #0 {
  %3 = load i8, ptr @H5E_init_g, align 1, !tbaa !3, !range !7, !noundef !8
  %4 = trunc nuw i8 %3 to i1
  %5 = load i8, ptr @H5_libterm_g, align 1, !range !7
  %6 = trunc nuw i8 %5 to i1
  %7 = xor i1 %6, true
  %8 = select i1 %4, i1 true, i1 %7
  br i1 %8, label %.preheader, label %.thread, !prof !9

.preheader:                                       ; preds = %2
  %.not45 = icmp eq i64 %1, 0
  br i1 %.not45, label %._crit_edge, label %.lr.ph

.lr.ph:                                           ; preds = %.preheader
  %9 = getelementptr inbounds nuw i8, ptr %0, i64 8
  br label %10

10:                                               ; preds = %.lr.ph, %64
  %.03047 = phi i32 [ 0, %.lr.ph ], [ %12, %64 ]
  %.03146 = phi i64 [ %1, %.lr.ph ], [ %69, %64 ]
  %11 = load i64, ptr %0, align 8, !tbaa !13
  %12 = add i32 %.03047, 1
  %13 = zext i32 %12 to i64
  %14 = sub i64 %11, %13
  %15 = getelementptr inbounds nuw [32 x %struct.H5E_entry_t], ptr %9, i64 0, i64 %14
  %16 = getelementptr inbounds nuw i8, ptr %15, i64 8
  %17 = getelementptr inbounds nuw i8, ptr %15, i64 24
  %18 = load i64, ptr %17, align 8, !tbaa !58
  %19 = load i64, ptr @H5E_first_min_id_g, align 8, !tbaa !10
  %20 = icmp slt i64 %18, %19
  %21 = load i64, ptr @H5E_last_min_id_g, align 8
  %22 = icmp sgt i64 %18, %21
  %or.cond = select i1 %20, i1 true, i1 %22
  br i1 %or.cond, label %23, label %30

23:                                               ; preds = %10
  %24 = tail call i32 @H5I_dec_ref(i64 noundef %18) #16
  %25 = icmp slt i32 %24, 0
  br i1 %25, label %26, label %30

26:                                               ; preds = %23
  %27 = load i64, ptr @H5E_ERROR_g, align 8, !tbaa !10
  %28 = load i64, ptr @H5E_CANTDEC_g, align 8, !tbaa !10
  %29 = tail call i32 (ptr, ptr, i32, i64, i64, ptr, ...) @H5E_printf_stack(ptr noundef nonnull @.str.1, ptr noundef nonnull @__func__.H5E__clear_entries, i32 noundef 1797, i64 noundef %27, i64 noundef %28, ptr noundef nonnull @.str.408)
  br label %.thread

30:                                               ; preds = %10, %23
  %31 = getelementptr inbounds nuw i8, ptr %15, i64 16
  %32 = load i64, ptr %31, align 8, !tbaa !57
  %33 = load i64, ptr @H5E_first_maj_id_g, align 8, !tbaa !10
  %34 = icmp slt i64 %32, %33
  %35 = load i64, ptr @H5E_last_maj_id_g, align 8
  %36 = icmp sgt i64 %32, %35
  %or.cond38 = select i1 %34, i1 true, i1 %36
  br i1 %or.cond38, label %37, label %44

37:                                               ; preds = %30
  %38 = tail call i32 @H5I_dec_ref(i64 noundef %32) #16
  %39 = icmp slt i32 %38, 0
  br i1 %39, label %40, label %44

40:                                               ; preds = %37
  %41 = load i64, ptr @H5E_ERROR_g, align 8, !tbaa !10
  %42 = load i64, ptr @H5E_CANTDEC_g, align 8, !tbaa !10
  %43 = tail call i32 (ptr, ptr, i32, i64, i64, ptr, ...) @H5E_printf_stack(ptr noundef nonnull @.str.1, ptr noundef nonnull @__func__.H5E__clear_entries, i32 noundef 1800, i64 noundef %41, i64 noundef %42, ptr noundef nonnull @.str.408)
  br label %.thread

44:                                               ; preds = %30, %37
  %45 = load i64, ptr %16, align 8, !tbaa !56
  %46 = load i64, ptr @H5E_ERR_CLS_g, align 8, !tbaa !10
  %.not35 = icmp eq i64 %45, %46
  br i1 %.not35, label %54, label %47

47:                                               ; preds = %44
  %48 = tail call i32 @H5I_dec_ref(i64 noundef %45) #16
  %49 = icmp slt i32 %48, 0
  br i1 %49, label %50, label %54

50:                                               ; preds = %47
  %51 = load i64, ptr @H5E_ERROR_g, align 8, !tbaa !10
  %52 = load i64, ptr @H5E_CANTDEC_g, align 8, !tbaa !10
  %53 = tail call i32 (ptr, ptr, i32, i64, i64, ptr, ...) @H5E_printf_stack(ptr noundef nonnull @.str.1, ptr noundef nonnull @__func__.H5E__clear_entries, i32 noundef 1803, i64 noundef %51, i64 noundef %52, ptr noundef nonnull @.str.409)
  br label %.thread

54:                                               ; preds = %47, %44
  %55 = load i8, ptr %15, align 8, !tbaa !18, !range !7, !noundef !8
  %56 = trunc nuw i8 %55 to i1
  br i1 %56, label %57, label %64

57:                                               ; preds = %54
  %58 = getelementptr inbounds nuw i8, ptr %15, i64 48
  %59 = load ptr, ptr %58, align 8, !tbaa !59
  %60 = tail call ptr @H5MM_xfree_const(ptr noundef %59) #16
  %61 = getelementptr inbounds nuw i8, ptr %15, i64 40
  %62 = load ptr, ptr %61, align 8, !tbaa !60
  %63 = tail call ptr @H5MM_xfree_const(ptr noundef %62) #16
  br label %64

64:                                               ; preds = %57, %54
  %65 = getelementptr inbounds nuw i8, ptr %15, i64 40
  %66 = getelementptr inbounds nuw i8, ptr %15, i64 56
  tail call void @llvm.memset.p0.i64(ptr noundef nonnull align 8 dereferenceable(16) %65, i8 0, i64 16, i1 false)
  %67 = load ptr, ptr %66, align 8, !tbaa !61
  %68 = tail call ptr @H5MM_xfree_const(ptr noundef %67) #16
  store ptr %68, ptr %66, align 8, !tbaa !61
  %69 = add i64 %.03146, -1
  %.not = icmp eq i64 %69, 0
  br i1 %.not, label %._crit_edge.loopexit, label %10, !llvm.loop !85

._crit_edge.loopexit:                             ; preds = %64
  %70 = zext i32 %12 to i64
  br label %._crit_edge

._crit_edge:                                      ; preds = %.preheader, %._crit_edge.loopexit
  %.030.lcssa = phi i64 [ %70, %._crit_edge.loopexit ], [ 0, %.preheader ]
  %71 = load i64, ptr %0, align 8, !tbaa !13
  %72 = sub i64 %71, %.030.lcssa
  store i64 %72, ptr %0, align 8, !tbaa !13
  br label %.thread

.thread:                                          ; preds = %50, %40, %26, %2, %._crit_edge
  %.028 = phi i32 [ 0, %._crit_edge ], [ 0, %2 ], [ -1, %26 ], [ -1, %40 ], [ -1, %50 ]
  ret i32 %.028
}